MPASM 5.71  /USERS/PEDROAM/DOCUMENTS/MICROCO   3-28-2017  15:24:27         PAGE  1


LOC  OBJECT CODE     LINE SOURCE TEXT
  VALUE

2007   3FF1           00001     __CONFIG _CP_OFF & _WDT_OFF & _PWRTE_ON & _XT_OSC
                      00002     LIST P=16F84A
                      00003     INCLUDE <P16F84A.INC>
                      00001         LIST
                      00002 
                      00003 ;==========================================================================
                      00004 ; Build date : Nov 17 2016
                      00005 ;  MPASM PIC16F84A processor include
                      00006 ; 
                      00007 ;  (c) Copyright 1999-2016 Microchip Technology, All rights reserved
                      00008 ;==========================================================================
                      00009 
                      00209         LIST
                      00004     ORG 0
                      00005     
  0000000F            00006 CONT    EQU     0X0F
  00000010            00007 CONT2   EQU     0X10
  0000000C            00008 REGA     EQU    0X0C
  0000000D            00009 REGB        EQU 0X0D
                      00010    
0000                  00011 INICIO 
                      00012             
0000   1683           00013         BSF     STATUS,RP0
0001   30FF           00014         MOVLW   B'11111111'
Message[302]: Register in operand not in bank 0.  Ensure that bank bits are correct.
0002   0086           00015         MOVWF   TRISB
0003   3001           00016         MOVLW   B'00000001'
Message[302]: Register in operand not in bank 0.  Ensure that bank bits are correct.
0004   0085           00017         MOVWF   TRISA
0005   1283           00018         BCF     STATUS,RP0
                      00019         
0006   018C           00020         CLRF    REGA
0007   018D           00021         CLRF    REGB
                      00022                     
0008                  00023 PRIN    
                      00024         
0008                  00025 PR
0008   1C05           00026         BTFSS   PORTA,0 ;SI ESTA EN O SE VUELVE A COMPARAR PORQUE NO HA HABIDO CAMBIO
0009   2???           00027         GOTO    PR      ;SI ESTA EN 1 LLAMA AL TIEMPO Y CUANDO ESTE TERMINE INC
000A   2???           00028         CALL    EliminadorRebotes
000B   0806           00029         MOVF    PORTB,W
000C   008C           00030         MOVWF   REGA
000D                  00031 PR2
000D   1805           00032         BTFSC   PORTA,0 ;SI ESTA EN 1 SE VUELVE A COMPARAR PORQUE NO HA HABIDO CAMBIO
000E   2???           00033         GOTO    PR2     ;SI ESTA EN 0 LLAMA AL TIEMPO Y CUANDO ESTE TERMINE EL PROGRAMA PUEDE CONTINUAR
000F   2???           00034         CALL    EliminadorRebotes       
0010                  00035 PRB
0010   1C05           00036         BTFSS   PORTA,0 ;SI ESTA EN O SE VUELVE A COMPARAR PORQUE NO HA HABIDO CAMBIO
0011   2???           00037         GOTO    PRB     ;SI ESTA EN 1 LLAMA AL TIEMPO Y CUANDO ESTE TERMINE INC
0012   2???           00038         CALL    EliminadorRebotes
0013   0806           00039         MOVF    PORTB,W
0014   008D           00040         MOVWF   REGB
0015                  00041 PRB2
MPASM 5.71  /USERS/PEDROAM/DOCUMENTS/MICROCO   3-28-2017  15:24:27         PAGE  2


LOC  OBJECT CODE     LINE SOURCE TEXT
  VALUE

0015   1805           00042         BTFSC   PORTA,0 ;SI ESTA EN 1 SE VUELVE A COMPARAR PORQUE NO HA HABIDO CAMBIO
0016   2???           00043         GOTO    PRB2    ;SI ESTA EN 0 LLAMA AL TIEMPO Y CUANDO ESTE TERMINE EL PROGRAMA PUEDE CONTINUAR
0017   2???           00044         CALL    EliminadorRebotes
                      00045         
0018                  00046 COMPARACIONES
                      00047         
0018   080C           00048         MOVF    REGA,0
0019   020D           00049         SUBWF   REGB,0
001A   1903           00050         BTFSC   STATUS,Z
001B   2???           00051         GOTO    IGUAL
001C   1803           00052         BTFSC   STATUS,C
001D   2???           00053         GOTO    MAYOR
001E   2???           00054         GOTO    MENOR
                      00055         
001F                  00056 REGRESO
                      00057         
001F   2???           00058         GOTO    PRIN
                      00059         
0020                  00060 IGUAL
0020   3002           00061         MOVLW   B'00010'
0021   0085           00062         MOVWF   PORTA
0022   2???           00063         GOTO    REGRESO
                      00064         
0023                  00065 MAYOR
0023   3004           00066         MOVLW   B'00100'
0024   0085           00067         MOVWF   PORTA
0025   2???           00068         GOTO    REGRESO
                      00069 
0026                  00070 MENOR
0026   3008           00071         MOVLW   B'01000'
0027   0085           00072         MOVWF   PORTA
0028   2???           00073         GOTO    REGRESO
                      00074         
0029                  00075 EliminadorRebotes
0029   3064           00076         MOVLW   D'100'
002A   008F           00077         MOVWF   CONT
002B                  00078 TB      
002B   3064           00079         MOVLW   D'100'
002C   0090           00080         MOVWF   CONT2
002D                  00081 TC
Message[305]: Using default destination of 1 (file).
002D   0B90           00082         DECFSZ  CONT2
002E   2???           00083         GOTO    TC
Message[305]: Using default destination of 1 (file).
002F   0B8F           00084         DECFSZ  CONT
0030   2???           00085         GOTO    TB
0031   0008           00086         RETURN
                      00087         
3FF1                  00088     END
MPASM 5.71  /USERS/PEDROAM/DOCUMENTS/MICROCO   3-28-2017  15:24:27         PAGE  3


SYMBOL TABLE
  LABEL                             VALUE 

C                                 00000000
COMPARACIONES                     00000018
CONT                              0000000F
CONT2                             00000010
DC                                00000001
EEADR                             00000009
EECON1                            00000088
EECON2                            00000089
EEDATA                            00000008
EEIE                              00000006
EEIF                              00000004
EliminadorRebotes                 00000029
F                                 00000001
FSR                               00000004
GIE                               00000007
IGUAL                             00000020
INDF                              00000000
INICIO                            00000000
INTCON                            0000000B
INTE                              00000004
INTEDG                            00000006
INTF                              00000001
IRP                               00000007
MAYOR                             00000023
MENOR                             00000026
NOT_PD                            00000003
NOT_RBPU                          00000007
NOT_TO                            00000004
OPTION_REG                        00000081
PCL                               00000002
PCLATH                            0000000A
PORTA                             00000005
PORTB                             00000006
PR                                00000008
PR2                               0000000D
PRB                               00000010
PRB2                              00000015
PRIN                              00000008
PS0                               00000000
PS1                               00000001
PS2                               00000002
PSA                               00000003
RA0                               00000000
RA1                               00000001
RA2                               00000002
RA3                               00000003
RA4                               00000004
RB0                               00000000
RB1                               00000001
RB2                               00000002
RB3                               00000003
RB4                               00000004
RB5                               00000005
MPASM 5.71  /USERS/PEDROAM/DOCUMENTS/MICROCO   3-28-2017  15:24:27         PAGE  4


SYMBOL TABLE
  LABEL                             VALUE 

RB6                               00000006
RB7                               00000007
RBIE                              00000003
RBIF                              00000000
RD                                00000000
REGA                              0000000C
REGB                              0000000D
REGRESO                           0000001F
RP0                               00000005
RP1                               00000006
STATUS                            00000003
T0CS                              00000005
T0IE                              00000005
T0IF                              00000002
T0SE                              00000004
TB                                0000002B
TC                                0000002D
TMR0                              00000001
TMR0IE                            00000005
TMR0IF                            00000002
TRISA                             00000085
TRISA0                            00000000
TRISA1                            00000001
TRISA2                            00000002
TRISA3                            00000003
TRISA4                            00000004
TRISB                             00000086
TRISB0                            00000000
TRISB1                            00000001
TRISB2                            00000002
TRISB3                            00000003
TRISB4                            00000004
TRISB5                            00000005
TRISB6                            00000006
TRISB7                            00000007
W                                 00000000
WR                                00000001
WREN                              00000002
WRERR                             00000003
Z                                 00000002
_CONFIG                           00002007
_CP_OFF                           00003FFF
_CP_ON                            0000000F
_DEVID1                           00002006
_FOSC_EXTRC                       00003FFF
_FOSC_HS                          00003FFE
_FOSC_LP                          00003FFC
_FOSC_XT                          00003FFD
_HS_OSC                           00003FFE
_IDLOC0                           00002000
_IDLOC1                           00002001
_IDLOC2                           00002002
_IDLOC3                           00002003
MPASM 5.71  /USERS/PEDROAM/DOCUMENTS/MICROCO   3-28-2017  15:24:27         PAGE  5


SYMBOL TABLE
  LABEL                             VALUE 

_LP_OSC                           00003FFC
_PWRTE_OFF                        00003FFF
_PWRTE_ON                         00003FF7
_RC_OSC                           00003FFF
_WDTE_OFF                         00003FFB
_WDTE_ON                          00003FFF
_WDT_OFF                          00003FFB
_WDT_ON                           00003FFF
_XT_OSC                           00003FFD
__16F84A                          00000001
__DEBUG                           
__MPLAB_DEBUGGER_SIMULATOR        1

Errors   :     0
Warnings :     0 reported,     0 suppressed
Messages :     4 reported,     0 suppressed

