MPASM 5.71  /USERS/PEDROAM/DOCUMENTS/MICROCO   3-14-2017  13:27:29         PAGE  1


LOC  OBJECT CODE     LINE SOURCE TEXT
  VALUE

2007   3FF1           00001     __CONFIG _CP_OFF & _WDT_OFF & _PWRTE_ON & _XT_OSC
                      00002     LIST P=16F84A
                      00003     INCLUDE <P16F84A.INC>
                      00001         LIST
                      00002 
                      00003 ;==========================================================================
                      00004 ; Build date : Nov 17 2016
                      00005 ;  MPASM PIC16F84A processor include
                      00006 ; 
                      00007 ;  (c) Copyright 1999-2016 Microchip Technology, All rights reserved
                      00008 ;==========================================================================
                      00009 
                      00209         LIST
                      00004     ORG 0
                      00005     
  0000000F            00006 CONT    EQU     0X0F
  00000011            00007 CONT2   EQU     0X11
  00000012            00008 CONT3   EQU     0X12
                      00009    
0000                  00010 INICIO
0000   1683           00011     BSF     STATUS,RP0
                      00012     ;CLRF    TRISA
Message[302]: Register in operand not in bank 0.  Ensure that bank bits are correct.
0001   0186           00013     CLRF    TRISB
0002   1283           00014     BCF     STATUS,RP0
                      00015     
0003                  00016 PROGRAMA
                      00017     ;MOVLW      B'11110'
                      00018     ;MOVWF      PORTA
0003   30FF           00019     MOVLW       B'11111111'
0004   0086           00020     MOVWF       PORTB
0005   2???           00021     CALL        TIME
0006   3000           00022     MOVLW       B'00000000'
0007   0086           00023     MOVWF       PORTB
0008   2???           00024     CALL        TIME
0009   2???           00025     GOTO        PROGRAMA
                      00026     
000A                  00027 TIME
000A   301E           00028         MOVLW   D'30';TENEMOS UNA RUTINA DE TIEMPO DE APROXIMADAMENTE DE UN SEGUNDO
000B   008F           00029         MOVWF   CONT
000C                  00030 TA
000C   3064           00031         MOVLW   D'100'
000D   0091           00032         MOVWF   CONT2
000E                  00033 TB      
000E   3064           00034         MOVLW   D'100'
000F   0092           00035         MOVWF   CONT3
0010                  00036 TC
Message[305]: Using default destination of 1 (file).
0010   0B92           00037         DECFSZ  CONT3
0011   2???           00038         GOTO    TC
Message[305]: Using default destination of 1 (file).
0012   0B91           00039         DECFSZ  CONT2
0013   2???           00040         GOTO    TB
MPASM 5.71  /USERS/PEDROAM/DOCUMENTS/MICROCO   3-14-2017  13:27:29         PAGE  2


LOC  OBJECT CODE     LINE SOURCE TEXT
  VALUE

Message[305]: Using default destination of 1 (file).
0014   0B8F           00041         DECFSZ  CONT
0015   2???           00042         GOTO    TA
0016   0008           00043         RETURN
3FF1                  00044     END
MPASM 5.71  /USERS/PEDROAM/DOCUMENTS/MICROCO   3-14-2017  13:27:29         PAGE  3


SYMBOL TABLE
  LABEL                             VALUE 

C                                 00000000
CONT                              0000000F
CONT2                             00000011
CONT3                             00000012
DC                                00000001
EEADR                             00000009
EECON1                            00000088
EECON2                            00000089
EEDATA                            00000008
EEIE                              00000006
EEIF                              00000004
F                                 00000001
FSR                               00000004
GIE                               00000007
INDF                              00000000
INICIO                            00000000
INTCON                            0000000B
INTE                              00000004
INTEDG                            00000006
INTF                              00000001
IRP                               00000007
NOT_PD                            00000003
NOT_RBPU                          00000007
NOT_TO                            00000004
OPTION_REG                        00000081
PCL                               00000002
PCLATH                            0000000A
PORTA                             00000005
PORTB                             00000006
PROGRAMA                          00000003
PS0                               00000000
PS1                               00000001
PS2                               00000002
PSA                               00000003
RA0                               00000000
RA1                               00000001
RA2                               00000002
RA3                               00000003
RA4                               00000004
RB0                               00000000
RB1                               00000001
RB2                               00000002
RB3                               00000003
RB4                               00000004
RB5                               00000005
RB6                               00000006
RB7                               00000007
RBIE                              00000003
RBIF                              00000000
RD                                00000000
RP0                               00000005
RP1                               00000006
STATUS                            00000003
MPASM 5.71  /USERS/PEDROAM/DOCUMENTS/MICROCO   3-14-2017  13:27:29         PAGE  4


SYMBOL TABLE
  LABEL                             VALUE 

T0CS                              00000005
T0IE                              00000005
T0IF                              00000002
T0SE                              00000004
TA                                0000000C
TB                                0000000E
TC                                00000010
TIME                              0000000A
TMR0                              00000001
TMR0IE                            00000005
TMR0IF                            00000002
TRISA                             00000085
TRISA0                            00000000
TRISA1                            00000001
TRISA2                            00000002
TRISA3                            00000003
TRISA4                            00000004
TRISB                             00000086
TRISB0                            00000000
TRISB1                            00000001
TRISB2                            00000002
TRISB3                            00000003
TRISB4                            00000004
TRISB5                            00000005
TRISB6                            00000006
TRISB7                            00000007
W                                 00000000
WR                                00000001
WREN                              00000002
WRERR                             00000003
Z                                 00000002
_CONFIG                           00002007
_CP_OFF                           00003FFF
_CP_ON                            0000000F
_DEVID1                           00002006
_FOSC_EXTRC                       00003FFF
_FOSC_HS                          00003FFE
_FOSC_LP                          00003FFC
_FOSC_XT                          00003FFD
_HS_OSC                           00003FFE
_IDLOC0                           00002000
_IDLOC1                           00002001
_IDLOC2                           00002002
_IDLOC3                           00002003
_LP_OSC                           00003FFC
_PWRTE_OFF                        00003FFF
_PWRTE_ON                         00003FF7
_RC_OSC                           00003FFF
_WDTE_OFF                         00003FFB
_WDTE_ON                          00003FFF
_WDT_OFF                          00003FFB
_WDT_ON                           00003FFF
_XT_OSC                           00003FFD
MPASM 5.71  /USERS/PEDROAM/DOCUMENTS/MICROCO   3-14-2017  13:27:29         PAGE  5


SYMBOL TABLE
  LABEL                             VALUE 

__16F84A                          00000001

Errors   :     0
Warnings :     0 reported,     0 suppressed
Messages :     4 reported,     0 suppressed

